Certificate:
    Data:
        Version: 3 (0x2)
        Serial Number:
            68:01:52:76:95:00:87:bf:5c:eb:20:a6:06:bb:c5:43:10:d6:68:0b
        Signature Algorithm: sha256WithRSAEncryption
        Issuer: CN = macanudo.bage.local
        Validity
            Not Before: Jan 25 15:02:11 2021 GMT
            Not After : Jan 23 15:02:11 2031 GMT
        Subject: CN = macanudo.bage.local
        Subject Public Key Info:
            Public Key Algorithm: rsaEncryption
                RSA Public-Key: (2048 bit)
                Modulus:
                    00:c0:ed:2c:55:53:f7:b9:e1:d1:04:bc:64:a2:59:
                    1b:42:22:71:f9:45:77:eb:61:60:03:ed:f9:70:2e:
                    97:58:92:c4:8d:52:fa:e2:18:cb:1e:0f:83:71:66:
                    b1:50:55:e3:ab:79:a7:e4:76:b4:6d:a0:cd:fe:5c:
                    03:4d:89:1c:a2:b5:d0:7e:5a:9b:0d:66:8e:e1:6d:
                    d2:a8:81:05:97:6d:36:19:09:ac:d3:21:a8:ca:26:
                    a4:50:a6:89:c1:9f:23:f1:ad:1c:d1:1f:73:63:fe:
                    d8:4d:49:09:fc:69:d1:2d:95:cd:c4:4c:aa:a2:87:
                    64:07:52:7c:9e:b4:03:1a:d0:0f:9e:0a:74:f8:91:
                    a7:5c:1e:f5:26:e8:5c:21:98:ca:bf:c0:e6:32:44:
                    54:dd:43:1a:f6:ee:8b:a1:7c:70:f9:cb:93:b8:13:
                    d1:59:5b:7e:16:c6:f5:44:40:58:91:9f:f6:ad:83:
                    8d:8d:d3:48:f3:a4:33:18:6c:ad:e2:26:ac:00:2b:
                    af:79:89:ab:ae:09:b4:21:2e:74:66:fe:48:dc:9a:
                    fd:9d:7d:74:3e:32:cf:7d:90:ac:b3:44:aa:c0:84:
                    ea:d4:4a:db:47:33:ea:9c:1b:5d:62:9c:3e:60:a1:
                    d4:fe:0f:c4:08:e1:5f:05:6c:96:e7:a5:6e:d1:e3:
                    11:2f
                Exponent: 65537 (0x10001)
        X509v3 extensions:
            X509v3 Subject Key Identifier: 
                37:FA:81:92:F3:02:73:37:97:17:59:4B:EB:15:C2:34:6B:CC:DB:5B
            X509v3 Authority Key Identifier: 
                keyid:37:FA:81:92:F3:02:73:37:97:17:59:4B:EB:15:C2:34:6B:CC:DB:5B

            X509v3 Basic Constraints: critical
                CA:TRUE
    Signature Algorithm: sha256WithRSAEncryption
         34:d2:1e:1f:2a:b0:5d:25:3c:8c:93:ca:62:b3:df:71:ae:b8:
         5f:82:2a:83:17:8c:8c:68:c9:32:22:2f:99:06:43:f5:30:0d:
         c5:e4:76:2d:db:3d:f5:2a:38:36:8a:cf:94:49:fe:f6:0b:55:
         45:25:5b:8c:aa:7a:e1:a1:78:87:b1:a6:1a:61:f2:6c:4e:91:
         3d:d0:81:09:8f:79:19:10:47:65:3e:f4:c0:42:30:b0:c2:43:
         cb:bb:66:0b:93:a9:e4:53:2c:b5:bd:71:0c:3e:4e:eb:46:a2:
         d3:b8:c8:8a:d6:41:f3:4f:30:01:94:31:ce:bf:c8:15:44:8b:
         94:ea:e7:7b:46:80:e7:aa:2d:a2:0f:99:e6:60:52:15:ad:10:
         21:8f:6b:d9:88:9e:b5:03:f9:62:6c:dd:e7:8a:9b:f1:14:8d:
         a0:00:40:9a:0b:5d:24:b1:b9:17:f2:04:6b:f5:23:99:65:27:
         57:4f:f3:6b:16:13:4e:ce:e9:e9:b2:cd:71:27:cc:1e:b1:52:
         1e:a0:c5:44:65:73:87:31:b7:dc:d1:16:51:b7:2e:35:8d:e5:
         e9:33:bc:91:4d:b7:85:3b:01:3c:72:23:ae:92:cd:06:f8:d7:
         75:8e:af:d5:4a:9c:14:14:4a:ce:5e:a1:0e:5b:c1:f9:7f:0d:
         f7:e5:d0:f1
-----BEGIN CERTIFICATE-----
MIIDHTCCAgWgAwIBAgIUaAFSdpUAh79c6yCmBrvFQxDWaAswDQYJKoZIhvcNAQEL
BQAwHjEcMBoGA1UEAwwTbWFjYW51ZG8uYmFnZS5sb2NhbDAeFw0yMTAxMjUxNTAy
MTFaFw0zMTAxMjMxNTAyMTFaMB4xHDAaBgNVBAMME21hY2FudWRvLmJhZ2UubG9j
YWwwggEiMA0GCSqGSIb3DQEBAQUAA4IBDwAwggEKAoIBAQDA7SxVU/e54dEEvGSi
WRtCInH5RXfrYWAD7flwLpdYksSNUvriGMseD4NxZrFQVeOreafkdrRtoM3+XANN
iRyitdB+WpsNZo7hbdKogQWXbTYZCazTIajKJqRQponBnyPxrRzRH3Nj/thNSQn8
adEtlc3ETKqih2QHUnyetAMa0A+eCnT4kadcHvUm6FwhmMq/wOYyRFTdQxr27ouh
fHD5y5O4E9FZW34WxvVEQFiRn/atg42N00jzpDMYbK3iJqwAK695iauuCbQhLnRm
/kjcmv2dfXQ+Ms99kKyzRKrAhOrUSttHM+qcG11inD5godT+D8QI4V8FbJbnpW7R
4xEvAgMBAAGjUzBRMB0GA1UdDgQWBBQ3+oGS8wJzN5cXWUvrFcI0a8zbWzAfBgNV
HSMEGDAWgBQ3+oGS8wJzN5cXWUvrFcI0a8zbWzAPBgNVHRMBAf8EBTADAQH/MA0G
CSqGSIb3DQEBCwUAA4IBAQA00h4fKrBdJTyMk8pis99xrrhfgiqDF4yMaMkyIi+Z
BkP1MA3F5HYt2z31Kjg2is+USf72C1VFJVuMqnrhoXiHsaYaYfJsTpE90IEJj3kZ
EEdlPvTAQjCwwkPLu2YLk6nkUyy1vXEMPk7rRqLTuMiK1kHzTzABlDHOv8gVRIuU
6ud7RoDnqi2iD5nmYFIVrRAhj2vZiJ61A/libN3nipvxFI2gAECaC10ksbkX8gRr
9SOZZSdXT/NrFhNOzunpss1xJ8wesVIeoMVEZXOHMbfc0RZRty41jeXpM7yRTbeF
OwE8ciOuks0G+Nd1jq/VSpwUFErOXqEOW8H5fw335dDx
-----END CERTIFICATE-----
